; ModuleID = 'source-C-CXX/19/1276.c'
source_filename = "source-C-CXX/19/1276.c"
target datalayout = "e-m:e-p270:32:32-p271:32:32-p272:64:64-i64:64-f80:128-n8:16:32:64-S128"
target triple = "x86_64-pc-linux-gnu"

@.str = private unnamed_addr constant [6 x i8] c"%s %s\00", align 1

; Function Attrs: nofree norecurse nosync nounwind readonly sspstrong uwtable
define dso_local i32 @max(i8* nocapture readonly %0, i32 %1, i32 %2) local_unnamed_addr #0 {
  %4 = icmp sgt i32 %2, 0
  br i1 %4, label %5, label %18

5:                                                ; preds = %3
  %6 = sext i32 %1 to i64
  %7 = getelementptr inbounds i8, i8* %0, i64 %6
  %8 = load i8, i8* %7, align 1, !tbaa !5
  %9 = zext i32 %2 to i64
  br label %12

10:                                               ; preds = %12
  %11 = icmp eq i64 %17, %9
  br i1 %11, label %18, label %12, !llvm.loop !8

12:                                               ; preds = %5, %10
  %13 = phi i64 [ 0, %5 ], [ %17, %10 ]
  %14 = getelementptr inbounds i8, i8* %0, i64 %13
  %15 = load i8, i8* %14, align 1, !tbaa !5
  %16 = icmp sgt i8 %15, %8
  %17 = add nuw nsw i64 %13, 1
  br i1 %16, label %18, label %10

18:                                               ; preds = %12, %10, %3
  %19 = phi i32 [ 1, %3 ], [ 1, %10 ], [ 0, %12 ]
  ret i32 %19
}

; Function Attrs: argmemonly mustprogress nofree nosync nounwind willreturn
declare void @llvm.lifetime.start.p0i8(i64 immarg, i8* nocapture) #1

; Function Attrs: argmemonly mustprogress nofree nosync nounwind willreturn
declare void @llvm.lifetime.end.p0i8(i64 immarg, i8* nocapture) #1

; Function Attrs: nofree nounwind sspstrong uwtable
define dso_local void @main() local_unnamed_addr #2 {
  %1 = alloca [11 x i8], align 1
  %2 = alloca [4 x i8], align 1
  %3 = getelementptr inbounds [11 x i8], [11 x i8]* %1, i64 0, i64 0
  call void @llvm.lifetime.start.p0i8(i64 11, i8* nonnull %3) #6
  %4 = getelementptr inbounds [4 x i8], [4 x i8]* %2, i64 0, i64 0
  call void @llvm.lifetime.start.p0i8(i64 4, i8* nonnull %4) #6
  %5 = call i32 (i8*, ...) @__isoc99_scanf(i8* getelementptr inbounds ([6 x i8], [6 x i8]* @.str, i64 0, i64 0), i8* nonnull %3, i8* nonnull %4)
  %6 = icmp eq i32 %5, -1
  br i1 %6, label %72, label %7

7:                                                ; preds = %0
  %8 = getelementptr inbounds [4 x i8], [4 x i8]* %2, i64 0, i64 1
  %9 = getelementptr inbounds [4 x i8], [4 x i8]* %2, i64 0, i64 2
  br label %10

10:                                               ; preds = %7, %68
  %11 = call i64 @strlen(i8* noundef nonnull %3) #7
  %12 = trunc i64 %11 to i32
  %13 = icmp sgt i32 %12, 0
  %14 = and i64 %11, 4294967295
  br i1 %13, label %15, label %36

15:                                               ; preds = %10
  %16 = and i64 %11, 4294967295
  br label %17

17:                                               ; preds = %15, %29
  %18 = phi i64 [ 0, %15 ], [ %30, %29 ]
  %19 = getelementptr inbounds [11 x i8], [11 x i8]* %1, i64 0, i64 %18
  %20 = load i8, i8* %19, align 1, !tbaa !5
  br label %23

21:                                               ; preds = %23
  %22 = icmp eq i64 %28, %14
  br i1 %22, label %32, label %23, !llvm.loop !8

23:                                               ; preds = %21, %17
  %24 = phi i64 [ 0, %17 ], [ %28, %21 ]
  %25 = getelementptr inbounds [11 x i8], [11 x i8]* %1, i64 0, i64 %24
  %26 = load i8, i8* %25, align 1, !tbaa !5
  %27 = icmp sgt i8 %26, %20
  %28 = add nuw nsw i64 %24, 1
  br i1 %27, label %29, label %21

29:                                               ; preds = %23
  %30 = add nuw nsw i64 %18, 1
  %31 = icmp eq i64 %30, %16
  br i1 %31, label %34, label %17, !llvm.loop !10

32:                                               ; preds = %21
  %33 = trunc i64 %18 to i32
  br label %36

34:                                               ; preds = %29
  %35 = trunc i64 %11 to i32
  br label %36

36:                                               ; preds = %34, %32, %10
  %37 = phi i32 [ 0, %10 ], [ %33, %32 ], [ %35, %34 ]
  %38 = add i32 %37, 1
  %39 = zext i32 %38 to i64
  br label %40

40:                                               ; preds = %36, %40
  %41 = phi i64 [ 0, %36 ], [ %46, %40 ]
  %42 = getelementptr inbounds [11 x i8], [11 x i8]* %1, i64 0, i64 %41
  %43 = load i8, i8* %42, align 1, !tbaa !5
  %44 = sext i8 %43 to i32
  %45 = call i32 @putchar(i32 %44)
  %46 = add nuw nsw i64 %41, 1
  %47 = icmp eq i64 %46, %39
  br i1 %47, label %48, label %40, !llvm.loop !11

48:                                               ; preds = %40
  %49 = load i8, i8* %4, align 1, !tbaa !5
  %50 = sext i8 %49 to i32
  %51 = call i32 @putchar(i32 %50)
  %52 = load i8, i8* %8, align 1, !tbaa !5
  %53 = sext i8 %52 to i32
  %54 = call i32 @putchar(i32 %53)
  %55 = load i8, i8* %9, align 1, !tbaa !5
  %56 = sext i8 %55 to i32
  %57 = call i32 @putchar(i32 %56)
  %58 = icmp slt i32 %38, %12
  br i1 %58, label %59, label %68

59:                                               ; preds = %48, %59
  %60 = phi i64 [ %65, %59 ], [ %39, %48 ]
  %61 = getelementptr inbounds [11 x i8], [11 x i8]* %1, i64 0, i64 %60
  %62 = load i8, i8* %61, align 1, !tbaa !5
  %63 = sext i8 %62 to i32
  %64 = call i32 @putchar(i32 %63)
  %65 = add nuw nsw i64 %60, 1
  %66 = trunc i64 %65 to i32
  %67 = icmp slt i32 %66, %12
  br i1 %67, label %59, label %68, !llvm.loop !12

68:                                               ; preds = %59, %48
  %69 = call i32 @putchar(i32 10)
  %70 = call i32 (i8*, ...) @__isoc99_scanf(i8* getelementptr inbounds ([6 x i8], [6 x i8]* @.str, i64 0, i64 0), i8* nonnull %3, i8* nonnull %4)
  %71 = icmp eq i32 %70, -1
  br i1 %71, label %72, label %10, !llvm.loop !13

72:                                               ; preds = %68, %0
  call void @llvm.lifetime.end.p0i8(i64 4, i8* nonnull %4) #6
  call void @llvm.lifetime.end.p0i8(i64 11, i8* nonnull %3) #6
  ret void
}

; Function Attrs: nofree nounwind
declare noundef i32 @__isoc99_scanf(i8* nocapture noundef readonly, ...) local_unnamed_addr #3

; Function Attrs: argmemonly mustprogress nofree nounwind readonly willreturn
declare i64 @strlen(i8* nocapture) local_unnamed_addr #4

; Function Attrs: nofree nounwind
declare noundef i32 @putchar(i32 noundef) local_unnamed_addr #5


!llvm.module.flags = !{!0, !1, !2, !3}
!llvm.ident = !{!4}

!0 = !{i32 1, !"wchar_size", i32 4}
!1 = !{i32 7, !"PIC Level", i32 2}
!2 = !{i32 7, !"PIE Level", i32 2}
!3 = !{i32 7, !"uwtable", i32 1}
!4 = !{!"clang version 13.0.0"}
!5 = !{!6, !6, i64 0}
!6 = !{!"omnipotent char", !7, i64 0}
!7 = !{!"Simple C/C++ TBAA"}
!8 = distinct !{!8, !9}
!9 = !{!"llvm.loop.mustprogress"}
!10 = distinct !{!10, !9}
!11 = distinct !{!11, !9}
!12 = distinct !{!12, !9}
!13 = distinct !{!13, !9}
